(lp1
(dp2
S'Album'
p3
VGhosts I-IV
p4
sS'Name'
p5
V21 Ghosts III
p6
sS'Artist'
p7
VNine Inch Nails
p8
sS'Track Number'
p9
I21
sS'Location'
p10
V/mnt/media/mp3/nin_ghosts_I-IV_mp3/Ghosts I-IV mp3/21 Ghosts III.mp3
p11
sS'Track ID'
p12
I0
sa(dp13
g3
VGhosts I-IV
p14
sg5
V12 Ghosts II
p15
sg7
VNine Inch Nails
p16
sg9
I12
sg10
V/mnt/media/mp3/nin_ghosts_I-IV_mp3/Ghosts I-IV mp3/12 Ghosts II.mp3
p17
sg12
I1
sa(dp18
g3
VGhosts I-IV
p19
sg5
V2 Ghosts I
p20
sg7
VNine Inch Nails
p21
sg9
I2
sg10
V/mnt/media/mp3/nin_ghosts_I-IV_mp3/Ghosts I-IV mp3/02 Ghosts I.mp3
p22
sg12
I2
sa(dp23
g3
VGhosts I-IV
p24
sg5
V34 Ghosts IV
p25
sg7
VNine Inch Nails
p26
sg9
I34
sg10
V/mnt/media/mp3/nin_ghosts_I-IV_mp3/Ghosts I-IV mp3/34 Ghosts IV.mp3
p27
sg12
I3
sa(dp28
g3
VGhosts I-IV
p29
sg5
V4 Ghosts I
p30
sg7
VNine Inch Nails
p31
sg9
I4
sg10
V/mnt/media/mp3/nin_ghosts_I-IV_mp3/Ghosts I-IV mp3/04 Ghosts I.mp3
p32
sg12
I4
sa(dp33
g3
VGhosts I-IV
p34
sg5
V32 Ghosts IV
p35
sg7
VNine Inch Nails
p36
sg9
I32
sg10
V/mnt/media/mp3/nin_ghosts_I-IV_mp3/Ghosts I-IV mp3/32 Ghosts IV.mp3
p37
sg12
I5
sa(dp38
g3
VGhosts I-IV
p39
sg5
V18 Ghosts II
p40
sg7
VNine Inch Nails
p41
sg9
I18
sg10
V/mnt/media/mp3/nin_ghosts_I-IV_mp3/Ghosts I-IV mp3/18 Ghosts II.mp3
p42
sg12
I6
sa(dp43
g3
VGhosts I-IV
p44
sg5
V31 Ghosts IV
p45
sg7
VNine Inch Nails
p46
sg9
I31
sg10
V/mnt/media/mp3/nin_ghosts_I-IV_mp3/Ghosts I-IV mp3/31 Ghosts IV.mp3
p47
sg12
I7
sa(dp48
g3
VGhosts I-IV
p49
sg5
V8 Ghosts I
p50
sg7
VNine Inch Nails
p51
sg9
I8
sg10
V/mnt/media/mp3/nin_ghosts_I-IV_mp3/Ghosts I-IV mp3/08 Ghosts I.mp3
p52
sg12
I8
sa(dp53
g3
VGhosts I-IV
p54
sg5
V26 Ghosts III
p55
sg7
VNine Inch Nails
p56
sg9
I26
sg10
V/mnt/media/mp3/nin_ghosts_I-IV_mp3/Ghosts I-IV mp3/26 Ghosts III.mp3
p57
sg12
I9
sa(dp58
g3
VGhosts I-IV
p59
sg5
V33 Ghosts IV
p60
sg7
VNine Inch Nails
p61
sg9
I33
sg10
V/mnt/media/mp3/nin_ghosts_I-IV_mp3/Ghosts I-IV mp3/33 Ghosts IV.mp3
p62
sg12
I10
sa(dp63
g3
VGhosts I-IV
p64
sg5
V13 Ghosts II
p65
sg7
VNine Inch Nails
p66
sg9
I13
sg10
V/mnt/media/mp3/nin_ghosts_I-IV_mp3/Ghosts I-IV mp3/13 Ghosts II.mp3
p67
sg12
I11
sa(dp68
g3
VGhosts I-IV
p69
sg5
V3 Ghosts I
p70
sg7
VNine Inch Nails
p71
sg9
I3
sg10
V/mnt/media/mp3/nin_ghosts_I-IV_mp3/Ghosts I-IV mp3/03 Ghosts I.mp3
p72
sg12
I12
sa(dp73
g3
VGhosts I-IV
p74
sg5
V14 Ghosts II
p75
sg7
VNine Inch Nails
p76
sg9
I14
sg10
V/mnt/media/mp3/nin_ghosts_I-IV_mp3/Ghosts I-IV mp3/14 Ghosts II.mp3
p77
sg12
I13
sa(dp78
g3
VGhosts I-IV
p79
sg5
V35 Ghosts IV
p80
sg7
VNine Inch Nails
p81
sg9
I35
sg10
V/mnt/media/mp3/nin_ghosts_I-IV_mp3/Ghosts I-IV mp3/35 Ghosts IV.mp3
p82
sg12
I14
sa(dp83
g3
VGhosts I-IV
p84
sg5
V29 Ghosts IV
p85
sg7
VNine Inch Nails
p86
sg9
I29
sg10
V/mnt/media/mp3/nin_ghosts_I-IV_mp3/Ghosts I-IV mp3/29 Ghosts IV.mp3
p87
sg12
I15
sa(dp88
g3
VGhosts I-IV
p89
sg5
V20 Ghosts III
p90
sg7
VNine Inch Nails
p91
sg9
I20
sg10
V/mnt/media/mp3/nin_ghosts_I-IV_mp3/Ghosts I-IV mp3/20 Ghosts III.mp3
p92
sg12
I16
sa(dp93
g3
VGhosts I-IV
p94
sg5
V30 Ghosts IV
p95
sg7
VNine Inch Nails
p96
sg9
I30
sg10
V/mnt/media/mp3/nin_ghosts_I-IV_mp3/Ghosts I-IV mp3/30 Ghosts IV.mp3
p97
sg12
I17
sa(dp98
g3
VGhosts I-IV
p99
sg5
V6 Ghosts I
p100
sg7
VNine Inch Nails
p101
sg9
I6
sg10
V/mnt/media/mp3/nin_ghosts_I-IV_mp3/Ghosts I-IV mp3/06 Ghosts I.mp3
p102
sg12
I18
sa(dp103
g3
VGhosts I-IV
p104
sg5
V11 Ghosts II
p105
sg7
VNine Inch Nails
p106
sg9
I11
sg10
V/mnt/media/mp3/nin_ghosts_I-IV_mp3/Ghosts I-IV mp3/11 Ghosts II.mp3
p107
sg12
I19
sa(dp108
g3
VGhosts I-IV
p109
sg5
V23 Ghosts III
p110
sg7
VNine Inch Nails
p111
sg9
I23
sg10
V/mnt/media/mp3/nin_ghosts_I-IV_mp3/Ghosts I-IV mp3/23 Ghosts III.mp3
p112
sg12
I20
sa(dp113
g3
VGhosts I-IV
p114
sg5
V16 Ghosts II
p115
sg7
VNine Inch Nails
p116
sg9
I16
sg10
V/mnt/media/mp3/nin_ghosts_I-IV_mp3/Ghosts I-IV mp3/16 Ghosts II.mp3
p117
sg12
I21
sa(dp118
g3
VGhosts I-IV
p119
sg5
V7 Ghosts I
p120
sg7
VNine Inch Nails
p121
sg9
I7
sg10
V/mnt/media/mp3/nin_ghosts_I-IV_mp3/Ghosts I-IV mp3/07 Ghosts I.mp3
p122
sg12
I22
sa(dp123
g3
VGhosts I-IV
p124
sg5
V27 Ghosts III
p125
sg7
VNine Inch Nails
p126
sg9
I27
sg10
V/mnt/media/mp3/nin_ghosts_I-IV_mp3/Ghosts I-IV mp3/27 Ghosts III.mp3
p127
sg12
I23
sa(dp128
g3
VGhosts I-IV
p129
sg5
V10 Ghosts II
p130
sg7
VNine Inch Nails
p131
sg9
I10
sg10
V/mnt/media/mp3/nin_ghosts_I-IV_mp3/Ghosts I-IV mp3/10 Ghosts II.mp3
p132
sg12
I24
sa(dp133
g3
VGhosts I-IV
p134
sg5
V36 Ghosts IV
p135
sg7
VNine Inch Nails
p136
sg9
I36
sg10
V/mnt/media/mp3/nin_ghosts_I-IV_mp3/Ghosts I-IV mp3/36 Ghosts IV.mp3
p137
sg12
I25
sa(dp138
g3
VGhosts I-IV
p139
sg5
V15 Ghosts II
p140
sg7
VNine Inch Nails
p141
sg9
I15
sg10
V/mnt/media/mp3/nin_ghosts_I-IV_mp3/Ghosts I-IV mp3/15 Ghosts II.mp3
p142
sg12
I26
sa(dp143
g3
VGhosts I-IV
p144
sg5
V5 Ghosts I
p145
sg7
VNine Inch Nails
p146
sg9
I5
sg10
V/mnt/media/mp3/nin_ghosts_I-IV_mp3/Ghosts I-IV mp3/05 Ghosts I.mp3
p147
sg12
I27
sa(dp148
g3
VGhosts I-IV
p149
sg5
V24 Ghosts III
p150
sg7
VNine Inch Nails
p151
sg9
I24
sg10
V/mnt/media/mp3/nin_ghosts_I-IV_mp3/Ghosts I-IV mp3/24 Ghosts III.mp3
p152
sg12
I28
sa(dp153
g3
VGhosts I-IV
p154
sg5
V22 Ghosts III
p155
sg7
VNine Inch Nails
p156
sg9
I22
sg10
V/mnt/media/mp3/nin_ghosts_I-IV_mp3/Ghosts I-IV mp3/22 Ghosts III.mp3
p157
sg12
I29
sa(dp158
g3
VGhosts I-IV
p159
sg5
V9 Ghosts I
p160
sg7
VNine Inch Nails
p161
sg9
I9
sg10
V/mnt/media/mp3/nin_ghosts_I-IV_mp3/Ghosts I-IV mp3/09 Ghosts I.mp3
p162
sg12
I30
sa(dp163
g3
VGhosts I-IV
p164
sg5
V17 Ghosts II
p165
sg7
VNine Inch Nails
p166
sg9
I17
sg10
V/mnt/media/mp3/nin_ghosts_I-IV_mp3/Ghosts I-IV mp3/17 Ghosts II.mp3
p167
sg12
I31
sa(dp168
g3
VGhosts I-IV
p169
sg5
V25 Ghosts III
p170
sg7
VNine Inch Nails
p171
sg9
I25
sg10
V/mnt/media/mp3/nin_ghosts_I-IV_mp3/Ghosts I-IV mp3/25 Ghosts III.mp3
p172
sg12
I32
sa(dp173
g3
VGhosts I-IV
p174
sg5
V1 Ghosts I
p175
sg7
VNine Inch Nails
p176
sg9
I1
sg10
V/mnt/media/mp3/nin_ghosts_I-IV_mp3/Ghosts I-IV mp3/01 Ghosts I.mp3
p177
sg12
I33
sa(dp178
g3
VGhosts I-IV
p179
sg5
V28 Ghosts IV
p180
sg7
VNine Inch Nails
p181
sg9
I28
sg10
V/mnt/media/mp3/nin_ghosts_I-IV_mp3/Ghosts I-IV mp3/28 Ghosts IV.mp3
p182
sg12
I34
sa(dp183
g3
VGhosts I-IV
p184
sg5
V19 Ghosts III
p185
sg7
VNine Inch Nails
p186
sg9
I19
sg10
V/mnt/media/mp3/nin_ghosts_I-IV_mp3/Ghosts I-IV mp3/19 Ghosts III.mp3
p187
sg12
I35
sa.